; Function Attrs: nounwind uwtable
define void @validateBitEncoding(i32 noundef %0, i32 noundef %1, ptr noundef %2) local_unnamed_addr #3 {
  %4 = icmp ugt i32 %1, 1
  br i1 %4, label %QuESTAssert.exit6.sink.split, label %QuESTAssert.exit

QuESTAssert.exit:                                 ; preds = %3
  %5 = icmp eq i32 %1, 1
  %6 = icmp slt i32 %0, 2
  %or.cond = and i1 %6, %5
  br i1 %or.cond, label %QuESTAssert.exit6.sink.split, label %QuESTAssert.exit6

QuESTAssert.exit6.sink.split:                     ; preds = %QuESTAssert.exit, %3
  %.str.79.sink = phi ptr [ @.str.79, %3 ], [ @.str.80, %QuESTAssert.exit ]
  tail call void @invalidQuESTInputError(ptr noundef nonnull %.str.79.sink, ptr noundef %2)
  br label %QuESTAssert.exit6

QuESTAssert.exit6:                                ; preds = %QuESTAssert.exit6.sink.split, %QuESTAssert.exit
  ret void
}